target datalayout = "e-m:e-p270:32:32-p271:32:32-p272:64:64-i64:64-i128:128-f80:128-n8:16:32:64-S128"
target triple = "x86_64-pc-linux-gnu"

%struct._e_guid_t = type { i32, i16, i16, [8 x i8] }
%struct._dcerpc_info = type { ptr, i32, i64, i8, i32, i32, i32, i32, i32, i32, i32, i32, i32, i32, ptr, ptr, ptr }
%struct._dcerpc_call_value = type { %struct._e_guid_t, i16, %struct._e_guid_t, i16, i32, %struct.nstime_t, i32, i32, ptr, ptr, ptr, i32 }
%struct.nstime_t = type { i64, i32 }

@hf_drsuapi_drsuapi_DsCrackNames_ctr = internal global i32 -1, align 4
@hf_drsuapi_drsuapi_DsNameCtr_ctr1 = internal global i32 -1, align 4
@ett_drsuapi_drsuapi_DsNameCtr = internal global i32 -1, align 4
@.str.1755 = private unnamed_addr constant [18 x i8] c"drsuapi_DsNameCtr\00", align 1
@.str.1756 = private unnamed_addr constant [37 x i8] c"Pointer to Ctr1 (drsuapi_DsNameCtr1)\00", align 1

; Function Attrs: nounwind uwtable
define internal i32 @drsuapi_dissect_element_DsNameCtr_ctr1(ptr noundef %0, i32 noundef %1, ptr noundef %2, ptr noundef %3, ptr noundef %4, ptr noundef %5) #0 {
  %7 = alloca ptr, align 8
  %8 = alloca i32, align 4
  %9 = alloca ptr, align 8
  %10 = alloca ptr, align 8
  %11 = alloca ptr, align 8
  %12 = alloca ptr, align 8
  store ptr %0, ptr %7, align 8
  store i32 %1, ptr %8, align 4
  store ptr %2, ptr %9, align 8
  store ptr %3, ptr %10, align 8
  store ptr %4, ptr %11, align 8
  store ptr %5, ptr %12, align 8
  %13 = load ptr, ptr %7, align 8
  %14 = load i32, ptr %8, align 4
  %15 = load ptr, ptr %9, align 8
  %16 = load ptr, ptr %10, align 8
  %17 = load ptr, ptr %11, align 8
  %18 = load ptr, ptr %12, align 8
  %19 = load i32, ptr @hf_drsuapi_drsuapi_DsNameCtr_ctr1, align 4
  %20 = call i32 @dissect_ndr_embedded_pointer(ptr noundef %13, i32 noundef %14, ptr noundef %15, ptr noundef %16, ptr noundef %17, ptr noundef %18, ptr noundef @drsuapi_dissect_element_DsNameCtr_ctr1_, i32 noundef 2, ptr noundef @.str.1756, i32 noundef %19)
  store i32 %20, ptr %8, align 4
  %21 = load i32, ptr %8, align 4
  ret i32 %21
}

; Function Attrs: nounwind uwtable
define internal i32 @drsuapi_dissect_DsNameCtr(ptr noundef %0, i32 noundef %1, ptr noundef %2, ptr noundef %3, ptr noundef %4, ptr noundef %5, i32 noundef %6, i32 noundef %7) #0 {
  %9 = alloca ptr, align 8
  %10 = alloca i32, align 4
  %11 = alloca ptr, align 8
  %12 = alloca ptr, align 8
  %13 = alloca ptr, align 8
  %14 = alloca ptr, align 8
  %15 = alloca i32, align 4
  %16 = alloca i32, align 4
  %17 = alloca ptr, align 8
  %18 = alloca ptr, align 8
  %19 = alloca i32, align 4
  %20 = alloca i32, align 4
  store ptr %0, ptr %9, align 8
  store i32 %1, ptr %10, align 4
  store ptr %2, ptr %11, align 8
  store ptr %3, ptr %12, align 8
  store ptr %4, ptr %13, align 8
  store ptr %5, ptr %14, align 8
  store i32 %6, ptr %15, align 4
  store i32 %7, ptr %16, align 4
  store ptr null, ptr %17, align 8
  store ptr null, ptr %18, align 8
  %21 = load i32, ptr %10, align 4
  store i32 %21, ptr %19, align 4
  %22 = load ptr, ptr %12, align 8
  %23 = icmp ne ptr %22, null
  br i1 %23, label %24, label %30

24:                                               ; preds = %8
  %25 = load ptr, ptr %12, align 8
  %26 = load ptr, ptr %9, align 8
  %27 = load i32, ptr %10, align 4
  %28 = load i32, ptr @ett_drsuapi_drsuapi_DsNameCtr, align 4
  %29 = call ptr @proto_tree_add_subtree(ptr noundef %25, ptr noundef %26, i32 noundef %27, i32 noundef -1, i32 noundef %28, ptr noundef %17, ptr noundef @.str.1755)
  store ptr %29, ptr %18, align 8
  br label %30

30:                                               ; preds = %24, %8
  %31 = load ptr, ptr %9, align 8
  %32 = load i32, ptr %10, align 4
  %33 = load ptr, ptr %11, align 8
  %34 = load ptr, ptr %18, align 8
  %35 = load ptr, ptr %13, align 8
  %36 = load ptr, ptr %14, align 8
  %37 = load i32, ptr %15, align 4
  %38 = call i32 @dissect_ndr_uint32(ptr noundef %31, i32 noundef %32, ptr noundef %33, ptr noundef %34, ptr noundef %35, ptr noundef %36, i32 noundef %37, ptr noundef %20)
  store i32 %38, ptr %10, align 4
  %39 = load ptr, ptr %13, align 8
  %40 = getelementptr inbounds %struct._dcerpc_info, ptr %39, i32 0, i32 14
  %41 = load ptr, ptr %40, align 8
  %42 = getelementptr inbounds %struct._dcerpc_call_value, ptr %41, i32 0, i32 11
  %43 = load i32, ptr %42, align 8
  %44 = and i32 %43, 1
  %45 = icmp ne i32 %44, 0
  br i1 %45, label %46, label %61

46:                                               ; preds = %30
  %47 = load ptr, ptr %13, align 8
  %48 = getelementptr inbounds %struct._dcerpc_info, ptr %47, i32 0, i32 4
  %49 = load i32, ptr %48, align 4
  %50 = icmp ne i32 %49, 0
  br i1 %50, label %60, label %51

51:                                               ; preds = %46
  %52 = load i32, ptr %10, align 4
  %53 = and i32 %52, 7
  %54 = icmp ne i32 %53, 0
  br i1 %54, label %55, label %59

55:                                               ; preds = %51
  %56 = load i32, ptr %10, align 4
  %57 = and i32 %56, -8
  %58 = add i32 %57, 8
  store i32 %58, ptr %10, align 4
  br label %59

59:                                               ; preds = %55, %51
  br label %60

60:                                               ; preds = %59, %46
  br label %76

61:                                               ; preds = %30
  %62 = load ptr, ptr %13, align 8
  %63 = getelementptr inbounds %struct._dcerpc_info, ptr %62, i32 0, i32 4
  %64 = load i32, ptr %63, align 4
  %65 = icmp ne i32 %64, 0
  br i1 %65, label %75, label %66

66:                                               ; preds = %61
  %67 = load i32, ptr %10, align 4
  %68 = and i32 %67, 3
  %69 = icmp ne i32 %68, 0
  br i1 %69, label %70, label %74

70:                                               ; preds = %66
  %71 = load i32, ptr %10, align 4
  %72 = and i32 %71, -4
  %73 = add i32 %72, 4
  store i32 %73, ptr %10, align 4
  br label %74

74:                                               ; preds = %70, %66
  br label %75

75:                                               ; preds = %74, %61
  br label %76

76:                                               ; preds = %75, %60
  %77 = load i32, ptr %20, align 4
  switch i32 %77, label %86 [
    i32 1, label %78
  ]

78:                                               ; preds = %76
  %79 = load ptr, ptr %9, align 8
  %80 = load i32, ptr %10, align 4
  %81 = load ptr, ptr %11, align 8
  %82 = load ptr, ptr %18, align 8
  %83 = load ptr, ptr %13, align 8
  %84 = load ptr, ptr %14, align 8
  %85 = call i32 @drsuapi_dissect_element_DsNameCtr_ctr1(ptr noundef %79, i32 noundef %80, ptr noundef %81, ptr noundef %82, ptr noundef %83, ptr noundef %84)
  store i32 %85, ptr %10, align 4
  br label %86

86:                                               ; preds = %78, %76
  %87 = load ptr, ptr %17, align 8
  %88 = load i32, ptr %10, align 4
  %89 = load i32, ptr %19, align 4
  %90 = sub i32 %88, %89
  call void @proto_item_set_len(ptr noundef %87, i32 noundef %90)
  %91 = load i32, ptr %10, align 4
  ret i32 %91
}

; Function Attrs: nounwind uwtable
define internal i32 @drsuapi_dissect_element_DsCrackNames_ctr_(ptr noundef %0, i32 noundef %1, ptr noundef %2, ptr noundef %3, ptr noundef %4, ptr noundef %5) #0 {
  %7 = alloca ptr, align 8
  %8 = alloca i32, align 4
  %9 = alloca ptr, align 8
  %10 = alloca ptr, align 8
  %11 = alloca ptr, align 8
  %12 = alloca ptr, align 8
  store ptr %0, ptr %7, align 8
  store i32 %1, ptr %8, align 4
  store ptr %2, ptr %9, align 8
  store ptr %3, ptr %10, align 8
  store ptr %4, ptr %11, align 8
  store ptr %5, ptr %12, align 8
  %13 = load ptr, ptr %11, align 8
  %14 = getelementptr inbounds %struct._dcerpc_info, ptr %13, i32 0, i32 14
  %15 = load ptr, ptr %14, align 8
  %16 = getelementptr inbounds %struct._dcerpc_call_value, ptr %15, i32 0, i32 11
  %17 = load i32, ptr %16, align 8
  %18 = and i32 %17, 1
  %19 = icmp ne i32 %18, 0
  br i1 %19, label %20, label %35

20:                                               ; preds = %6
  %21 = load ptr, ptr %11, align 8
  %22 = getelementptr inbounds %struct._dcerpc_info, ptr %21, i32 0, i32 4
  %23 = load i32, ptr %22, align 4
  %24 = icmp ne i32 %23, 0
  br i1 %24, label %34, label %25

25:                                               ; preds = %20
  %26 = load i32, ptr %8, align 4
  %27 = and i32 %26, 7
  %28 = icmp ne i32 %27, 0
  br i1 %28, label %29, label %33

29:                                               ; preds = %25
  %30 = load i32, ptr %8, align 4
  %31 = and i32 %30, -8
  %32 = add i32 %31, 8
  store i32 %32, ptr %8, align 4
  br label %33

33:                                               ; preds = %29, %25
  br label %34

34:                                               ; preds = %33, %20
  br label %50

35:                                               ; preds = %6
  %36 = load ptr, ptr %11, align 8
  %37 = getelementptr inbounds %struct._dcerpc_info, ptr %36, i32 0, i32 4
  %38 = load i32, ptr %37, align 4
  %39 = icmp ne i32 %38, 0
  br i1 %39, label %49, label %40

40:                                               ; preds = %35
  %41 = load i32, ptr %8, align 4
  %42 = and i32 %41, 3
  %43 = icmp ne i32 %42, 0
  br i1 %43, label %44, label %48

44:                                               ; preds = %40
  %45 = load i32, ptr %8, align 4
  %46 = and i32 %45, -4
  %47 = add i32 %46, 4
  store i32 %47, ptr %8, align 4
  br label %48

48:                                               ; preds = %44, %40
  br label %49

49:                                               ; preds = %48, %35
  br label %50

50:                                               ; preds = %49, %34
  %51 = load ptr, ptr %7, align 8
  %52 = load i32, ptr %8, align 4
  %53 = load ptr, ptr %9, align 8
  %54 = load ptr, ptr %10, align 8
  %55 = load ptr, ptr %11, align 8
  %56 = load ptr, ptr %12, align 8
  %57 = load i32, ptr @hf_drsuapi_drsuapi_DsCrackNames_ctr, align 4
  %58 = call i32 @drsuapi_dissect_DsNameCtr(ptr noundef %51, i32 noundef %52, ptr noundef %53, ptr noundef %54, ptr noundef %55, ptr noundef %56, i32 noundef %57, i32 noundef 0)
  store i32 %58, ptr %8, align 4
  %59 = load i32, ptr %8, align 4
  ret i32 %59
}