; Function Attrs: nounwind uwtable
define internal i32 @drsuapi_dissect_element_DsCrackNames_ctr_(ptr noundef %0, i32 noundef %1, ptr noundef %2, ptr noundef %3, ptr noundef %4, ptr noundef %5) #0 {
  %7 = alloca ptr, align 8
  %8 = alloca i32, align 4
  %9 = getelementptr inbounds nuw i8, ptr %4, i64 72
  %10 = load ptr, ptr %9, align 8
  %11 = getelementptr inbounds nuw i8, ptr %10, i64 96
  %12 = load i32, ptr %11, align 8
  %13 = and i32 %12, 1
  %.not = icmp eq i32 %13, 0
  %14 = getelementptr inbounds nuw i8, ptr %4, i64 28
  %15 = load i32, ptr %14, align 4
  %.not13 = icmp ne i32 %15, 0
  br i1 %.not, label %21, label %16

16:                                               ; preds = %6
  %17 = and i32 %1, 7
  %.not16 = icmp eq i32 %17, 0
  %or.cond = or i1 %.not16, %.not13
  br i1 %or.cond, label %26, label %18

18:                                               ; preds = %16
  %19 = and i32 %1, -8
  %20 = add i32 %19, 8
  br label %26

21:                                               ; preds = %6
  %22 = and i32 %1, 3
  %.not14 = icmp eq i32 %22, 0
  %or.cond17 = or i1 %.not14, %.not13
  br i1 %or.cond17, label %26, label %23

23:                                               ; preds = %21
  %24 = and i32 %1, -4
  %25 = add i32 %24, 4
  br label %26

26:                                               ; preds = %21, %23, %16, %18
  %.0 = phi i32 [ %1, %16 ], [ %20, %18 ], [ %1, %21 ], [ %25, %23 ]
  %27 = load i32, ptr @hf_drsuapi_drsuapi_DsCrackNames_ctr, align 4
  call void @llvm.lifetime.start.p0(i64 8, ptr nonnull %7)
  call void @llvm.lifetime.start.p0(i64 4, ptr nonnull %8)
  store ptr null, ptr %7, align 8
  %.not.i = icmp eq ptr %3, null
  br i1 %.not.i, label %31, label %28

28:                                               ; preds = %26
  %29 = load i32, ptr @ett_drsuapi_drsuapi_DsNameCtr, align 4
  %30 = call ptr @proto_tree_add_subtree(ptr noundef nonnull %3, ptr noundef %0, i32 noundef %.0, i32 noundef -1, i32 noundef %29, ptr noundef nonnull %7, ptr noundef nonnull @.str.1755) #5
  br label %31

31:                                               ; preds = %28, %26
  %.027.i = phi ptr [ %30, %28 ], [ null, %26 ]
  %32 = call i32 @dissect_ndr_uint32(ptr noundef %0, i32 noundef %.0, ptr noundef %2, ptr noundef %.027.i, ptr noundef nonnull %4, ptr noundef %5, i32 noundef %27, ptr noundef nonnull %8) #5
  %33 = load ptr, ptr %9, align 8
  %34 = getelementptr inbounds nuw i8, ptr %33, i64 96
  %35 = load i32, ptr %34, align 8
  %36 = and i32 %35, 1
  %.not29.i = icmp eq i32 %36, 0
  %37 = getelementptr inbounds nuw i8, ptr %4, i64 28
  %38 = load i32, ptr %37, align 4
  %.not30.i = icmp ne i32 %38, 0
  br i1 %.not29.i, label %44, label %39

39:                                               ; preds = %31
  %40 = and i32 %32, 7
  %.not33.i = icmp eq i32 %40, 0
  %or.cond.i = select i1 %.not30.i, i1 true, i1 %.not33.i
  br i1 %or.cond.i, label %49, label %41

41:                                               ; preds = %39
  %42 = and i32 %32, -8
  %43 = add i32 %42, 8
  br label %49

44:                                               ; preds = %31
  %45 = and i32 %32, 3
  %.not31.i = icmp eq i32 %45, 0
  %or.cond34.i = select i1 %.not30.i, i1 true, i1 %.not31.i
  br i1 %or.cond34.i, label %49, label %46

46:                                               ; preds = %44
  %47 = and i32 %32, -4
  %48 = add i32 %47, 4
  br label %49

49:                                               ; preds = %46, %44, %41, %39
  %.0.i = phi i32 [ %32, %39 ], [ %43, %41 ], [ %32, %44 ], [ %48, %46 ]
  %50 = load i32, ptr %8, align 4
  %cond.i = icmp eq i32 %50, 1
  br i1 %cond.i, label %51, label %drsuapi_dissect_DsNameCtr.exit

51:                                               ; preds = %49
  %52 = load i32, ptr @hf_drsuapi_drsuapi_DsNameCtr_ctr1, align 4
  %53 = call i32 @dissect_ndr_embedded_pointer(ptr noundef %0, i32 noundef %.0.i, ptr noundef %2, ptr noundef %.027.i, ptr noundef nonnull %4, ptr noundef %5, ptr noundef nonnull @drsuapi_dissect_element_DsNameCtr_ctr1_, i32 noundef 2, ptr noundef nonnull @.str.1756, i32 noundef %52) #5
  br label %drsuapi_dissect_DsNameCtr.exit

drsuapi_dissect_DsNameCtr.exit:                   ; preds = %49, %51
  %.1.i = phi i32 [ %53, %51 ], [ %.0.i, %49 ]
  %54 = load ptr, ptr %7, align 8
  %55 = sub i32 %.1.i, %.0
  call void @proto_item_set_len(ptr noundef %54, i32 noundef %55) #5
  call void @llvm.lifetime.end.p0(i64 8, ptr nonnull %7)
  call void @llvm.lifetime.end.p0(i64 4, ptr nonnull %8)
  ret i32 %.1.i
}